target datalayout = "e-m:e-p270:32:32-p271:32:32-p272:64:64-i64:64-i128:128-f80:128-n8:16:32:64-S128"
target triple = "x86_64-unknown-linux-gnu"

%"class.icu_75::UObject" = type { ptr }
%"class.icu_75::UnicodeString" = type { %"class.icu_75::Replaceable", %"union.icu_75::UnicodeString::StackBufferOrFields" }
%"class.icu_75::Replaceable" = type { %"class.icu_75::UObject" }
%"union.icu_75::UnicodeString::StackBufferOrFields" = type { %struct.anon.0, [32 x i8] }
%struct.anon.0 = type { i16, i32, i32, ptr }

; Function Attrs: mustprogress nounwind uwtable
define linkonce_odr noundef i32 @_ZNK6icu_7513UnicodeString14getShortLengthEv(ptr noundef nonnull align 8 dereferenceable(64) %this) #0 comdat align 2 {
entry:
  %this.addr = alloca ptr, align 8
  store ptr %this, ptr %this.addr, align 8
  %this1 = load ptr, ptr %this.addr, align 8
  %fUnion = getelementptr inbounds %"class.icu_75::UnicodeString", ptr %this1, i32 0, i32 1
  %fLengthAndFlags = getelementptr inbounds %struct.anon.0, ptr %fUnion, i32 0, i32 0
  %0 = load i16, ptr %fLengthAndFlags, align 8
  %conv = sext i16 %0 to i32
  %shr = ashr i32 %conv, 5
  ret i32 %shr
}

; Function Attrs: mustprogress nounwind uwtable
define linkonce_odr noundef signext i8 @_ZNK6icu_7513UnicodeString14hasShortLengthEv(ptr noundef nonnull align 8 dereferenceable(64) %this) #0 comdat align 2 {
entry:
  %this.addr = alloca ptr, align 8
  store ptr %this, ptr %this.addr, align 8
  %this1 = load ptr, ptr %this.addr, align 8
  %fUnion = getelementptr inbounds %"class.icu_75::UnicodeString", ptr %this1, i32 0, i32 1
  %fLengthAndFlags = getelementptr inbounds %struct.anon.0, ptr %fUnion, i32 0, i32 0
  %0 = load i16, ptr %fLengthAndFlags, align 8
  %conv = sext i16 %0 to i32
  %cmp = icmp sge i32 %conv, 0
  %conv2 = zext i1 %cmp to i8
  ret i8 %conv2
}

; Function Attrs: mustprogress uwtable
define linkonce_odr noundef i32 @_ZNK6icu_7513UnicodeString6lengthEv(ptr noundef nonnull align 8 dereferenceable(64) %this) #1 comdat align 2 {
entry:
  %this.addr = alloca ptr, align 8
  store ptr %this, ptr %this.addr, align 8
  %this1 = load ptr, ptr %this.addr, align 8
  %call = call noundef signext i8 @_ZNK6icu_7513UnicodeString14hasShortLengthEv(ptr noundef nonnull align 8 dereferenceable(64) %this1)
  %tobool = icmp ne i8 %call, 0
  br i1 %tobool, label %cond.true, label %cond.false

cond.true:                                        ; preds = %entry
  %call2 = call noundef i32 @_ZNK6icu_7513UnicodeString14getShortLengthEv(ptr noundef nonnull align 8 dereferenceable(64) %this1)
  br label %cond.end

cond.false:                                       ; preds = %entry
  %fUnion = getelementptr inbounds %"class.icu_75::UnicodeString", ptr %this1, i32 0, i32 1
  %fLength = getelementptr inbounds %struct.anon.0, ptr %fUnion, i32 0, i32 1
  %0 = load i32, ptr %fLength, align 4
  br label %cond.end

cond.end:                                         ; preds = %cond.false, %cond.true
  %cond = phi i32 [ %call2, %cond.true ], [ %0, %cond.false ]
  ret i32 %cond
}

; Function Attrs: mustprogress uwtable
define void @_ZN6icu_7510UnicodeSet12_appendToPatERNS_13UnicodeStringERKS1_a(ptr noundef nonnull align 8 dereferenceable(64) %buf, ptr noundef nonnull align 8 dereferenceable(64) %s, i8 noundef signext %escapeUnprintable) #1 align 2 {
entry:
  %buf.addr = alloca ptr, align 8
  %s.addr = alloca ptr, align 8
  %escapeUnprintable.addr = alloca i8, align 1
  %cp = alloca i32, align 4
  %i = alloca i32, align 4
  store ptr %buf, ptr %buf.addr, align 8
  store ptr %s, ptr %s.addr, align 8
  store i8 %escapeUnprintable, ptr %escapeUnprintable.addr, align 1
  store i32 0, ptr %i, align 4
  br label %for.cond

for.cond:                                         ; preds = %for.inc, %entry
  %0 = load i32, ptr %i, align 4
  %1 = load ptr, ptr %s.addr, align 8
  %call = call noundef i32 @_ZNK6icu_7513UnicodeString6lengthEv(ptr noundef nonnull align 8 dereferenceable(64) %1)
  %cmp = icmp slt i32 %0, %call
  br i1 %cmp, label %for.body, label %for.end

for.body:                                         ; preds = %for.cond
  %2 = load ptr, ptr %buf.addr, align 8
  %3 = load ptr, ptr %s.addr, align 8
  %4 = load i32, ptr %i, align 4
  %call1 = call noundef i32 @_ZNK6icu_7513UnicodeString8char32AtEi(ptr noundef nonnull align 8 dereferenceable(64) %3, i32 noundef %4)
  store i32 %call1, ptr %cp, align 4
  %5 = load i8, ptr %escapeUnprintable.addr, align 1
  call void @_ZN6icu_7510UnicodeSet12_appendToPatERNS_13UnicodeStringEia(ptr noundef nonnull align 8 dereferenceable(64) %2, i32 noundef %call1, i8 noundef signext %5)
  br label %for.inc

for.inc:                                          ; preds = %for.body
  %6 = load i32, ptr %cp, align 4
  %cmp2 = icmp ule i32 %6, 65535
  %cond = select i1 %cmp2, i32 1, i32 2
  %7 = load i32, ptr %i, align 4
  %add = add nsw i32 %7, %cond
  store i32 %add, ptr %i, align 4
  br label %for.cond, !llvm.loop !31

for.end:                                          ; preds = %for.cond
  ret void
}