; Function Attrs: mustprogress uwtable
define void @_ZN6icu_7510UnicodeSet12_appendToPatERNS_13UnicodeStringERKS1_a(ptr noundef nonnull align 8 dereferenceable(64) %buf, ptr noundef nonnull align 8 dereferenceable(64) %s, i8 noundef signext %escapeUnprintable) local_unnamed_addr #1 align 2 {
entry:
  %fUnion.i.i = getelementptr inbounds i8, ptr %s, i64 8
  %fLength.i = getelementptr inbounds i8, ptr %s, i64 12
  %0 = load i16, ptr %fUnion.i.i, align 8
  %cmp.i.i4 = icmp slt i16 %0, 0
  %1 = ashr i16 %0, 5
  %shr.i.i5 = sext i16 %1 to i32
  %2 = load i32, ptr %fLength.i, align 4
  %cond.i6 = select i1 %cmp.i.i4, i32 %2, i32 %shr.i.i5
  %cmp7 = icmp sgt i32 %cond.i6, 0
  br i1 %cmp7, label %for.body, label %for.end

for.body:                                         ; preds = %entry, %for.body
  %i.08 = phi i32 [ %add, %for.body ], [ 0, %entry ]
  %call1 = tail call noundef i32 @_ZNK6icu_7513UnicodeString8char32AtEi(ptr noundef nonnull align 8 dereferenceable(64) %s, i32 noundef %i.08)
  tail call void @_ZN6icu_7510UnicodeSet12_appendToPatERNS_13UnicodeStringEia(ptr noundef nonnull align 8 dereferenceable(64) %buf, i32 noundef %call1, i8 noundef signext %escapeUnprintable)
  %cmp2 = icmp ult i32 %call1, 65536
  %cond = select i1 %cmp2, i32 1, i32 2
  %add = add nuw nsw i32 %cond, %i.08
  %3 = load i16, ptr %fUnion.i.i, align 8
  %cmp.i.i = icmp slt i16 %3, 0
  %4 = ashr i16 %3, 5
  %shr.i.i = sext i16 %4 to i32
  %5 = load i32, ptr %fLength.i, align 4
  %cond.i = select i1 %cmp.i.i, i32 %5, i32 %shr.i.i
  %cmp = icmp slt i32 %add, %cond.i
  br i1 %cmp, label %for.body, label %for.end, !llvm.loop !31

for.end:                                          ; preds = %for.body, %entry
  ret void
}